target datalayout = "e-m:e-p270:32:32-p271:32:32-p272:64:64-i64:64-i128:128-f80:128-n8:16:32:64-S128"
target triple = "x86_64-pc-linux-gnu"

%struct.test_memio_ctx = type { [65536 x i8], i32, ptr, [65536 x i8], i32, ptr }

@.str = private unnamed_addr constant [33 x i8] c"\0AERROR - %s line %d failed with:\00", align 1
@.str.1 = private unnamed_addr constant [105 x i8] c"generated/home/dtcxzyw/WorkSpace/Projects/compilers/llvm-opt-benchmark/bench/wolfssl/wolfssl/tests/api.c\00", align 1
@.str.2 = private unnamed_addr constant [16 x i8] c"\0A    expected: \00", align 1
@stdout = external global ptr, align 8
@.str.3 = private unnamed_addr constant [9 x i8] c"%s == %s\00", align 1
@.str.6 = private unnamed_addr constant [16 x i8] c"\0A    result:   \00", align 1
@.str.7 = private unnamed_addr constant [9 x i8] c"%d != %d\00", align 1
@.str.8 = private unnamed_addr constant [3 x i8] c"\0A\0A\00", align 1
@.str.1024 = private unnamed_addr constant [2 x i8] c"0\00", align 1
@.str.1299 = private unnamed_addr constant [3 x i8] c"-1\00", align 1
@.str.2035 = private unnamed_addr constant [14 x i8] c"(FATAL_ERROR)\00", align 1
@.str.2071 = private unnamed_addr constant [23 x i8] c"wolfSSL_connect(ssl_c)\00", align 1
@__const.test_tls_alert_no_server_hello.alert_msg = private unnamed_addr constant [7 x i8] c"\15\03\01\00\02\02(", align 1
@.str.2081 = private unnamed_addr constant [107 x i8] c"test_memio_setup(&test_ctx, &ctx_c, ((void*)0), &ssl_c, ((void*)0), wolfTLSv1_2_client_method, ((void*)0))\00", align 1
@.str.2082 = private unnamed_addr constant [29 x i8] c"wolfSSL_get_error(ssl_c, -1)\00", align 1

; Function Attrs: nounwind uwtable
define internal i32 @test_tls_alert_no_server_hello() #0 {
  %1 = alloca i32, align 4
  %2 = alloca i32, align 4
  %3 = alloca ptr, align 8
  %4 = alloca ptr, align 8
  %5 = alloca %struct.test_memio_ctx, align 8
  %6 = alloca [7 x i8], align 1
  %7 = alloca i32, align 4
  %8 = alloca i32, align 4
  %9 = alloca i32, align 4
  %10 = alloca i32, align 4
  %11 = alloca i32, align 4
  %12 = alloca i32, align 4
  call void @llvm.lifetime.start.p0(i64 4, ptr %1) #14
  store i32 3, ptr %1, align 4, !tbaa !10
  call void @llvm.lifetime.start.p0(i64 4, ptr %2) #14
  store i32 0, ptr %2, align 4, !tbaa !10
  call void @llvm.lifetime.start.p0(i64 8, ptr %3) #14
  store ptr null, ptr %3, align 8, !tbaa !85
  call void @llvm.lifetime.start.p0(i64 8, ptr %4) #14
  store ptr null, ptr %4, align 8, !tbaa !84
  call void @llvm.lifetime.start.p0(i64 131104, ptr %5) #14
  call void @llvm.lifetime.start.p0(i64 7, ptr %6) #14
  call void @llvm.memcpy.p0.p0.i64(ptr align 1 %6, ptr align 1 @__const.test_tls_alert_no_server_hello.alert_msg, i64 7, i1 false)
  call void @llvm.memset.p0.i64(ptr align 8 %5, i8 0, i64 131104, i1 false)
  store ptr null, ptr %3, align 8, !tbaa !85
  store ptr null, ptr %4, align 8, !tbaa !84
  br label %13

13:                                               ; preds = %0
  %14 = load i32, ptr %1, align 4, !tbaa !10
  %15 = icmp eq i32 %14, 1
  br i1 %15, label %25, label %16

16:                                               ; preds = %13
  %17 = load i32, ptr %1, align 4, !tbaa !10
  %18 = icmp eq i32 %17, 3
  br i1 %18, label %25, label %19

19:                                               ; preds = %16
  %20 = load i32, ptr %1, align 4, !tbaa !10
  %21 = icmp eq i32 %20, 2
  br i1 %21, label %25, label %22

22:                                               ; preds = %19
  %23 = load i32, ptr %1, align 4, !tbaa !10
  %24 = icmp eq i32 %23, 4
  br i1 %24, label %25, label %85

25:                                               ; preds = %22, %19, %16, %13
  call void @llvm.lifetime.start.p0(i64 4, ptr %7) #14
  %26 = call i32 @test_memio_setup(ptr noundef %5, ptr noundef %4, ptr noundef null, ptr noundef %3, ptr noundef null, ptr noundef @wolfTLSv1_2_client_method, ptr noundef null)
  store i32 %26, ptr %7, align 4, !tbaa !10
  call void @llvm.lifetime.start.p0(i64 4, ptr %8) #14
  store i32 0, ptr %8, align 4, !tbaa !10
  br label %27

27:                                               ; preds = %25
  %28 = load i32, ptr %1, align 4, !tbaa !10
  %29 = icmp eq i32 %28, 1
  br i1 %29, label %39, label %30

30:                                               ; preds = %27
  %31 = load i32, ptr %1, align 4, !tbaa !10
  %32 = icmp eq i32 %31, 3
  br i1 %32, label %39, label %33

33:                                               ; preds = %30
  %34 = load i32, ptr %1, align 4, !tbaa !10
  %35 = icmp eq i32 %34, 2
  br i1 %35, label %39, label %36

36:                                               ; preds = %33
  %37 = load i32, ptr %1, align 4, !tbaa !10
  %38 = icmp eq i32 %37, 4
  br i1 %38, label %39, label %76

39:                                               ; preds = %36, %33, %30, %27
  %40 = load i32, ptr %7, align 4, !tbaa !10
  %41 = load i32, ptr %8, align 4, !tbaa !10
  %42 = icmp eq i32 %40, %41
  br i1 %42, label %69, label %43

43:                                               ; preds = %39
  br label %44

44:                                               ; preds = %43
  %45 = load i32, ptr %1, align 4, !tbaa !10
  %46 = icmp eq i32 %45, 2
  br i1 %46, label %50, label %47

47:                                               ; preds = %44
  %48 = load i32, ptr %1, align 4, !tbaa !10
  %49 = icmp eq i32 %48, 4
  br i1 %49, label %50, label %52

50:                                               ; preds = %47, %44
  %51 = load i32, ptr %2, align 4, !tbaa !10
  store i32 %51, ptr %1, align 4, !tbaa !10
  br label %66

52:                                               ; preds = %47
  %53 = call i32 (ptr, ...) @printf(ptr noundef @.str, ptr noundef @.str.1, i32 noundef 95188)
  %54 = load ptr, ptr @stdout, align 8, !tbaa !22
  %55 = call i32 @fputs(ptr noundef @.str.2, ptr noundef %54)
  %56 = call i32 (ptr, ...) @printf(ptr noundef @.str.3, ptr noundef @.str.2081, ptr noundef @.str.1024)
  %57 = load ptr, ptr @stdout, align 8, !tbaa !22
  %58 = call i32 @fputs(ptr noundef @.str.6, ptr noundef %57)
  %59 = load i32, ptr %7, align 4, !tbaa !10
  %60 = load i32, ptr %8, align 4, !tbaa !10
  %61 = call i32 (ptr, ...) @printf(ptr noundef @.str.7, i32 noundef %59, i32 noundef %60)
  %62 = load ptr, ptr @stdout, align 8, !tbaa !22
  %63 = call i32 @fputs(ptr noundef @.str.8, ptr noundef %62)
  %64 = load ptr, ptr @stdout, align 8, !tbaa !22
  %65 = call i32 @fflush(ptr noundef %64)
  store i32 0, ptr %1, align 4, !tbaa !10
  br label %66

66:                                               ; preds = %52, %50
  br label %67

67:                                               ; preds = %66
  br label %68

68:                                               ; preds = %67
  br label %75

69:                                               ; preds = %39
  %70 = load i32, ptr %1, align 4, !tbaa !10
  %71 = icmp eq i32 %70, 4
  br i1 %71, label %72, label %73

72:                                               ; preds = %69
  store i32 2, ptr %1, align 4, !tbaa !10
  br label %74

73:                                               ; preds = %69
  store i32 1, ptr %1, align 4, !tbaa !10
  br label %74

74:                                               ; preds = %73, %72
  br label %75

75:                                               ; preds = %74, %68
  br label %76

76:                                               ; preds = %75, %36
  %77 = load i32, ptr %1, align 4, !tbaa !10
  %78 = icmp eq i32 %77, 2
  br i1 %78, label %79, label %82

79:                                               ; preds = %76
  %80 = load i32, ptr %2, align 4, !tbaa !10
  %81 = add nsw i32 %80, -1
  store i32 %81, ptr %2, align 4, !tbaa !10
  br label %82

82:                                               ; preds = %79, %76
  br label %83

83:                                               ; preds = %82
  br label %84

84:                                               ; preds = %83
  call void @llvm.lifetime.end.p0(i64 4, ptr %8) #14
  call void @llvm.lifetime.end.p0(i64 4, ptr %7) #14
  br label %85

85:                                               ; preds = %84, %22
  br label %86

86:                                               ; preds = %85
  br label %87

87:                                               ; preds = %86
  %88 = getelementptr inbounds nuw %struct.test_memio_ctx, ptr %5, i32 0, i32 0
  %89 = getelementptr inbounds [65536 x i8], ptr %88, i64 0, i64 0
  %90 = getelementptr inbounds [7 x i8], ptr %6, i64 0, i64 0
  call void @llvm.memcpy.p0.p0.i64(ptr align 8 %89, ptr align 1 %90, i64 7, i1 false)
  %91 = getelementptr inbounds nuw %struct.test_memio_ctx, ptr %5, i32 0, i32 1
  store i32 7, ptr %91, align 8, !tbaa !177
  br label %92

92:                                               ; preds = %87
  %93 = load i32, ptr %1, align 4, !tbaa !10
  %94 = icmp eq i32 %93, 1
  br i1 %94, label %104, label %95

95:                                               ; preds = %92
  %96 = load i32, ptr %1, align 4, !tbaa !10
  %97 = icmp eq i32 %96, 3
  br i1 %97, label %104, label %98

98:                                               ; preds = %95
  %99 = load i32, ptr %1, align 4, !tbaa !10
  %100 = icmp eq i32 %99, 2
  br i1 %100, label %104, label %101

101:                                              ; preds = %98
  %102 = load i32, ptr %1, align 4, !tbaa !10
  %103 = icmp eq i32 %102, 4
  br i1 %103, label %104, label %165

104:                                              ; preds = %101, %98, %95, %92
  call void @llvm.lifetime.start.p0(i64 4, ptr %9) #14
  %105 = load ptr, ptr %3, align 8, !tbaa !85
  %106 = call i32 @wolfSSL_connect(ptr noundef %105)
  store i32 %106, ptr %9, align 4, !tbaa !10
  call void @llvm.lifetime.start.p0(i64 4, ptr %10) #14
  store i32 -1, ptr %10, align 4, !tbaa !10
  br label %107

107:                                              ; preds = %104
  %108 = load i32, ptr %1, align 4, !tbaa !10
  %109 = icmp eq i32 %108, 1
  br i1 %109, label %119, label %110

110:                                              ; preds = %107
  %111 = load i32, ptr %1, align 4, !tbaa !10
  %112 = icmp eq i32 %111, 3
  br i1 %112, label %119, label %113

113:                                              ; preds = %110
  %114 = load i32, ptr %1, align 4, !tbaa !10
  %115 = icmp eq i32 %114, 2
  br i1 %115, label %119, label %116

116:                                              ; preds = %113
  %117 = load i32, ptr %1, align 4, !tbaa !10
  %118 = icmp eq i32 %117, 4
  br i1 %118, label %119, label %156

119:                                              ; preds = %116, %113, %110, %107
  %120 = load i32, ptr %9, align 4, !tbaa !10
  %121 = load i32, ptr %10, align 4, !tbaa !10
  %122 = icmp eq i32 %120, %121
  br i1 %122, label %149, label %123

123:                                              ; preds = %119
  br label %124

124:                                              ; preds = %123
  %125 = load i32, ptr %1, align 4, !tbaa !10
  %126 = icmp eq i32 %125, 2
  br i1 %126, label %130, label %127

127:                                              ; preds = %124
  %128 = load i32, ptr %1, align 4, !tbaa !10
  %129 = icmp eq i32 %128, 4
  br i1 %129, label %130, label %132

130:                                              ; preds = %127, %124
  %131 = load i32, ptr %2, align 4, !tbaa !10
  store i32 %131, ptr %1, align 4, !tbaa !10
  br label %146

132:                                              ; preds = %127
  %133 = call i32 (ptr, ...) @printf(ptr noundef @.str, ptr noundef @.str.1, i32 noundef 95193)
  %134 = load ptr, ptr @stdout, align 8, !tbaa !22
  %135 = call i32 @fputs(ptr noundef @.str.2, ptr noundef %134)
  %136 = call i32 (ptr, ...) @printf(ptr noundef @.str.3, ptr noundef @.str.2071, ptr noundef @.str.1299)
  %137 = load ptr, ptr @stdout, align 8, !tbaa !22
  %138 = call i32 @fputs(ptr noundef @.str.6, ptr noundef %137)
  %139 = load i32, ptr %9, align 4, !tbaa !10
  %140 = load i32, ptr %10, align 4, !tbaa !10
  %141 = call i32 (ptr, ...) @printf(ptr noundef @.str.7, i32 noundef %139, i32 noundef %140)
  %142 = load ptr, ptr @stdout, align 8, !tbaa !22
  %143 = call i32 @fputs(ptr noundef @.str.8, ptr noundef %142)
  %144 = load ptr, ptr @stdout, align 8, !tbaa !22
  %145 = call i32 @fflush(ptr noundef %144)
  store i32 0, ptr %1, align 4, !tbaa !10
  br label %146

146:                                              ; preds = %132, %130
  br label %147

147:                                              ; preds = %146
  br label %148

148:                                              ; preds = %147
  br label %155

149:                                              ; preds = %119
  %150 = load i32, ptr %1, align 4, !tbaa !10
  %151 = icmp eq i32 %150, 4
  br i1 %151, label %152, label %153

152:                                              ; preds = %149
  store i32 2, ptr %1, align 4, !tbaa !10
  br label %154

153:                                              ; preds = %149
  store i32 1, ptr %1, align 4, !tbaa !10
  br label %154

154:                                              ; preds = %153, %152
  br label %155

155:                                              ; preds = %154, %148
  br label %156

156:                                              ; preds = %155, %116
  %157 = load i32, ptr %1, align 4, !tbaa !10
  %158 = icmp eq i32 %157, 2
  br i1 %158, label %159, label %162

159:                                              ; preds = %156
  %160 = load i32, ptr %2, align 4, !tbaa !10
  %161 = add nsw i32 %160, -1
  store i32 %161, ptr %2, align 4, !tbaa !10
  br label %162

162:                                              ; preds = %159, %156
  br label %163

163:                                              ; preds = %162
  br label %164

164:                                              ; preds = %163
  call void @llvm.lifetime.end.p0(i64 4, ptr %10) #14
  call void @llvm.lifetime.end.p0(i64 4, ptr %9) #14
  br label %165

165:                                              ; preds = %164, %101
  br label %166

166:                                              ; preds = %165
  br label %167

167:                                              ; preds = %166
  br label %168

168:                                              ; preds = %167
  %169 = load i32, ptr %1, align 4, !tbaa !10
  %170 = icmp eq i32 %169, 1
  br i1 %170, label %180, label %171

171:                                              ; preds = %168
  %172 = load i32, ptr %1, align 4, !tbaa !10
  %173 = icmp eq i32 %172, 3
  br i1 %173, label %180, label %174

174:                                              ; preds = %171
  %175 = load i32, ptr %1, align 4, !tbaa !10
  %176 = icmp eq i32 %175, 2
  br i1 %176, label %180, label %177

177:                                              ; preds = %174
  %178 = load i32, ptr %1, align 4, !tbaa !10
  %179 = icmp eq i32 %178, 4
  br i1 %179, label %180, label %241

180:                                              ; preds = %177, %174, %171, %168
  call void @llvm.lifetime.start.p0(i64 4, ptr %11) #14
  %181 = load ptr, ptr %3, align 8, !tbaa !85
  %182 = call i32 @wolfSSL_get_error(ptr noundef %181, i32 noundef -1)
  store i32 %182, ptr %11, align 4, !tbaa !10
  call void @llvm.lifetime.start.p0(i64 4, ptr %12) #14
  store i32 -313, ptr %12, align 4, !tbaa !10
  br label %183

183:                                              ; preds = %180
  %184 = load i32, ptr %1, align 4, !tbaa !10
  %185 = icmp eq i32 %184, 1
  br i1 %185, label %195, label %186

186:                                              ; preds = %183
  %187 = load i32, ptr %1, align 4, !tbaa !10
  %188 = icmp eq i32 %187, 3
  br i1 %188, label %195, label %189

189:                                              ; preds = %186
  %190 = load i32, ptr %1, align 4, !tbaa !10
  %191 = icmp eq i32 %190, 2
  br i1 %191, label %195, label %192

192:                                              ; preds = %189
  %193 = load i32, ptr %1, align 4, !tbaa !10
  %194 = icmp eq i32 %193, 4
  br i1 %194, label %195, label %232

195:                                              ; preds = %192, %189, %186, %183
  %196 = load i32, ptr %11, align 4, !tbaa !10
  %197 = load i32, ptr %12, align 4, !tbaa !10
  %198 = icmp eq i32 %196, %197
  br i1 %198, label %225, label %199

199:                                              ; preds = %195
  br label %200

200:                                              ; preds = %199
  %201 = load i32, ptr %1, align 4, !tbaa !10
  %202 = icmp eq i32 %201, 2
  br i1 %202, label %206, label %203

203:                                              ; preds = %200
  %204 = load i32, ptr %1, align 4, !tbaa !10
  %205 = icmp eq i32 %204, 4
  br i1 %205, label %206, label %208

206:                                              ; preds = %203, %200
  %207 = load i32, ptr %2, align 4, !tbaa !10
  store i32 %207, ptr %1, align 4, !tbaa !10
  br label %222

208:                                              ; preds = %203
  %209 = call i32 (ptr, ...) @printf(ptr noundef @.str, ptr noundef @.str.1, i32 noundef 95194)
  %210 = load ptr, ptr @stdout, align 8, !tbaa !22
  %211 = call i32 @fputs(ptr noundef @.str.2, ptr noundef %210)
  %212 = call i32 (ptr, ...) @printf(ptr noundef @.str.3, ptr noundef @.str.2082, ptr noundef @.str.2035)
  %213 = load ptr, ptr @stdout, align 8, !tbaa !22
  %214 = call i32 @fputs(ptr noundef @.str.6, ptr noundef %213)
  %215 = load i32, ptr %11, align 4, !tbaa !10
  %216 = load i32, ptr %12, align 4, !tbaa !10
  %217 = call i32 (ptr, ...) @printf(ptr noundef @.str.7, i32 noundef %215, i32 noundef %216)
  %218 = load ptr, ptr @stdout, align 8, !tbaa !22
  %219 = call i32 @fputs(ptr noundef @.str.8, ptr noundef %218)
  %220 = load ptr, ptr @stdout, align 8, !tbaa !22
  %221 = call i32 @fflush(ptr noundef %220)
  store i32 0, ptr %1, align 4, !tbaa !10
  br label %222

222:                                              ; preds = %208, %206
  br label %223

223:                                              ; preds = %222
  br label %224

224:                                              ; preds = %223
  br label %231

225:                                              ; preds = %195
  %226 = load i32, ptr %1, align 4, !tbaa !10
  %227 = icmp eq i32 %226, 4
  br i1 %227, label %228, label %229

228:                                              ; preds = %225
  store i32 2, ptr %1, align 4, !tbaa !10
  br label %230

229:                                              ; preds = %225
  store i32 1, ptr %1, align 4, !tbaa !10
  br label %230

230:                                              ; preds = %229, %228
  br label %231

231:                                              ; preds = %230, %224
  br label %232

232:                                              ; preds = %231, %192
  %233 = load i32, ptr %1, align 4, !tbaa !10
  %234 = icmp eq i32 %233, 2
  br i1 %234, label %235, label %238

235:                                              ; preds = %232
  %236 = load i32, ptr %2, align 4, !tbaa !10
  %237 = add nsw i32 %236, -1
  store i32 %237, ptr %2, align 4, !tbaa !10
  br label %238

238:                                              ; preds = %235, %232
  br label %239

239:                                              ; preds = %238
  br label %240

240:                                              ; preds = %239
  call void @llvm.lifetime.end.p0(i64 4, ptr %12) #14
  call void @llvm.lifetime.end.p0(i64 4, ptr %11) #14
  br label %241

241:                                              ; preds = %240, %177
  br label %242

242:                                              ; preds = %241
  br label %243

243:                                              ; preds = %242
  %244 = load ptr, ptr %3, align 8, !tbaa !85
  call void @wolfSSL_free(ptr noundef %244)
  %245 = load ptr, ptr %4, align 8, !tbaa !84
  call void @wolfSSL_CTX_free(ptr noundef %245)
  %246 = load i32, ptr %1, align 4, !tbaa !10
  %247 = icmp eq i32 %246, 2
  br i1 %247, label %248, label %249

248:                                              ; preds = %243
  br label %257

249:                                              ; preds = %243
  %250 = load i32, ptr %1, align 4, !tbaa !10
  %251 = icmp eq i32 %250, 4
  br i1 %251, label %252, label %253

252:                                              ; preds = %249
  br label %255

253:                                              ; preds = %249
  %254 = load i32, ptr %1, align 4, !tbaa !10
  br label %255

255:                                              ; preds = %253, %252
  %256 = phi i32 [ 3, %252 ], [ %254, %253 ]
  br label %257

257:                                              ; preds = %255, %248
  %258 = phi i32 [ 1, %248 ], [ %256, %255 ]
  call void @llvm.lifetime.end.p0(i64 7, ptr %6) #14
  call void @llvm.lifetime.end.p0(i64 131104, ptr %5) #14
  call void @llvm.lifetime.end.p0(i64 8, ptr %4) #14
  call void @llvm.lifetime.end.p0(i64 8, ptr %3) #14
  call void @llvm.lifetime.end.p0(i64 4, ptr %2) #14
  call void @llvm.lifetime.end.p0(i64 4, ptr %1) #14
  ret i32 %258
}