; Function Attrs: nounwind uwtable
define internal range(i32 0, 2) i32 @test_tls_alert_no_server_hello() #0 {
  %1 = alloca ptr, align 8
  %2 = alloca ptr, align 8
  %3 = alloca %struct.test_memio_ctx, align 8
  call void @llvm.lifetime.start.p0(i64 8, ptr nonnull %1) #27
  call void @llvm.lifetime.start.p0(i64 8, ptr nonnull %2) #27
  call void @llvm.lifetime.start.p0(i64 131104, ptr nonnull %3) #27
  call void @llvm.memset.p0.i64(ptr noundef nonnull align 8 dereferenceable(131104) %3, i8 0, i64 131104, i1 false)
  store ptr null, ptr %1, align 8, !tbaa !150
  store ptr null, ptr %2, align 8, !tbaa !149
  %4 = call i32 @test_memio_setup(ptr noundef nonnull %3, ptr noundef nonnull %2, ptr noundef null, ptr noundef nonnull %1, ptr noundef null, ptr noundef nonnull @wolfTLSv1_2_client_method, ptr noundef null) #27
  %5 = icmp eq i32 %4, 0
  br i1 %5, label %19, label %6

6:                                                ; preds = %0
  %7 = call i32 (ptr, ...) @printf(ptr noundef nonnull dereferenceable(1) @.str, ptr noundef nonnull @.str.1, i32 noundef 95188)
  %8 = load ptr, ptr @stdout, align 8, !tbaa !22
  %9 = call i64 @fwrite(ptr nonnull @.str.2, i64 15, i64 1, ptr %8)
  %10 = call i32 (ptr, ...) @printf(ptr noundef nonnull dereferenceable(1) @.str.3, ptr noundef nonnull @.str.2081, ptr noundef nonnull @.str.1024)
  %11 = load ptr, ptr @stdout, align 8, !tbaa !22
  %12 = call i64 @fwrite(ptr nonnull @.str.6, i64 15, i64 1, ptr %11)
  %13 = call i32 (ptr, ...) @printf(ptr noundef nonnull dereferenceable(1) @.str.7, i32 noundef %4, i32 noundef 0)
  %14 = load ptr, ptr @stdout, align 8, !tbaa !22
  %15 = call i64 @fwrite(ptr nonnull @.str.8, i64 2, i64 1, ptr %14)
  %16 = load ptr, ptr @stdout, align 8, !tbaa !22
  %17 = call i32 @fflush(ptr noundef %16)
  call void @llvm.memcpy.p0.p0.i64(ptr noundef nonnull align 8 dereferenceable(7) %3, ptr noundef nonnull align 1 dereferenceable(7) @__const.test_tls_alert_no_server_hello.alert_msg, i64 7, i1 false)
  %18 = getelementptr inbounds nuw i8, ptr %3, i64 65536
  store i32 7, ptr %18, align 8, !tbaa !163
  br label %.thread106

19:                                               ; preds = %0
  call void @llvm.memcpy.p0.p0.i64(ptr noundef nonnull align 8 dereferenceable(7) %3, ptr noundef nonnull align 1 dereferenceable(7) @__const.test_tls_alert_no_server_hello.alert_msg, i64 7, i1 false)
  %20 = getelementptr inbounds nuw i8, ptr %3, i64 65536
  store i32 7, ptr %20, align 8, !tbaa !163
  %21 = load ptr, ptr %1, align 8, !tbaa !150
  %22 = call i32 @wolfSSL_connect(ptr noundef %21) #27
  %23 = icmp eq i32 %22, -1
  br i1 %23, label %36, label %24

24:                                               ; preds = %19
  %25 = call i32 (ptr, ...) @printf(ptr noundef nonnull dereferenceable(1) @.str, ptr noundef nonnull @.str.1, i32 noundef 95193)
  %26 = load ptr, ptr @stdout, align 8, !tbaa !22
  %27 = call i64 @fwrite(ptr nonnull @.str.2, i64 15, i64 1, ptr %26)
  %28 = call i32 (ptr, ...) @printf(ptr noundef nonnull dereferenceable(1) @.str.3, ptr noundef nonnull @.str.2071, ptr noundef nonnull @.str.1299)
  %29 = load ptr, ptr @stdout, align 8, !tbaa !22
  %30 = call i64 @fwrite(ptr nonnull @.str.6, i64 15, i64 1, ptr %29)
  %31 = call i32 (ptr, ...) @printf(ptr noundef nonnull dereferenceable(1) @.str.7, i32 noundef %22, i32 noundef -1)
  %32 = load ptr, ptr @stdout, align 8, !tbaa !22
  %33 = call i64 @fwrite(ptr nonnull @.str.8, i64 2, i64 1, ptr %32)
  %34 = load ptr, ptr @stdout, align 8, !tbaa !22
  %35 = call i32 @fflush(ptr noundef %34)
  br label %.thread106

36:                                               ; preds = %19
  %37 = load ptr, ptr %1, align 8, !tbaa !150
  %38 = call i32 @wolfSSL_get_error(ptr noundef %37, i32 noundef -1) #27
  %39 = icmp eq i32 %38, -313
  br i1 %39, label %.thread106, label %40

40:                                               ; preds = %36
  %41 = call i32 (ptr, ...) @printf(ptr noundef nonnull dereferenceable(1) @.str, ptr noundef nonnull @.str.1, i32 noundef 95194)
  %42 = load ptr, ptr @stdout, align 8, !tbaa !22
  %43 = call i64 @fwrite(ptr nonnull @.str.2, i64 15, i64 1, ptr %42)
  %44 = call i32 (ptr, ...) @printf(ptr noundef nonnull dereferenceable(1) @.str.3, ptr noundef nonnull @.str.2082, ptr noundef nonnull @.str.2035)
  %45 = load ptr, ptr @stdout, align 8, !tbaa !22
  %46 = call i64 @fwrite(ptr nonnull @.str.6, i64 15, i64 1, ptr %45)
  %47 = call i32 (ptr, ...) @printf(ptr noundef nonnull dereferenceable(1) @.str.7, i32 noundef %38, i32 noundef -313)
  %48 = load ptr, ptr @stdout, align 8, !tbaa !22
  %49 = call i64 @fwrite(ptr nonnull @.str.8, i64 2, i64 1, ptr %48)
  %50 = load ptr, ptr @stdout, align 8, !tbaa !22
  %51 = call i32 @fflush(ptr noundef %50)
  br label %.thread106

.thread106:                                       ; preds = %24, %6, %36, %40
  %.5 = phi i32 [ 0, %40 ], [ 1, %36 ], [ 0, %6 ], [ 0, %24 ]
  %52 = load ptr, ptr %1, align 8, !tbaa !150
  call void @wolfSSL_free(ptr noundef %52) #27
  %53 = load ptr, ptr %2, align 8, !tbaa !149
  call void @wolfSSL_CTX_free(ptr noundef %53) #27
  call void @llvm.lifetime.end.p0(i64 131104, ptr nonnull %3) #27
  call void @llvm.lifetime.end.p0(i64 8, ptr nonnull %2) #27
  call void @llvm.lifetime.end.p0(i64 8, ptr nonnull %1) #27
  ret i32 %.5
}